; ModuleID = '26/835.c'
source_filename = "26/835.c"
target datalayout = "e-m:e-p270:32:32-p271:32:32-p272:64:64-i64:64-f80:128-n8:16:32:64-S128"
target triple = "x86_64-pc-linux-gnu"

; Function Attrs: noinline nounwind uwtable
define dso_local i32 @main() #0 {
  %1 = alloca i32, align 4
  %2 = alloca i32, align 4
  %3 = alloca i32, align 4
  %4 = alloca i32, align 4
  %5 = alloca i32, align 4
  %6 = alloca [101 x i8], align 16
  %7 = alloca [101 x i8], align 16
  store i32 0, i32* %1, align 4
  store i32 0, i32* %3, align 4
  store i32 0, i32* %4, align 4
  %8 = getelementptr inbounds [101 x i8], [101 x i8]* %6, i64 0, i64 0
  %9 = call i32 (i8*, ...) bitcast (i32 (...)* @gets to i32 (i8*, ...)*)(i8* %8)
  %10 = getelementptr inbounds [101 x i8], [101 x i8]* %6, i64 0, i64 0
  %11 = call i64 @strlen(i8* %10) #3
  %12 = trunc i64 %11 to i32
  store i32 %12, i32* %5, align 4
  store i32 0, i32* %2, align 4
  br label %13

13:                                               ; preds = %67, %0
  %14 = load i32, i32* %2, align 4
  %15 = load i32, i32* %5, align 4
  %16 = icmp sle i32 %14, %15
  br i1 %16, label %17, label %70

17:                                               ; preds = %13
  %18 = load i32, i32* %2, align 4
  %19 = sext i32 %18 to i64
  %20 = getelementptr inbounds [101 x i8], [101 x i8]* %6, i64 0, i64 %19
  %21 = load i8, i8* %20, align 1
  %22 = sext i8 %21 to i32
  %23 = icmp ne i32 %22, 32
  br i1 %23, label %38, label %24

24:                                               ; preds = %17
  %25 = load i32, i32* %4, align 4
  %26 = icmp eq i32 %25, 0
  br i1 %26, label %27, label %34

27:                                               ; preds = %24
  %28 = load i32, i32* %2, align 4
  %29 = sext i32 %28 to i64
  %30 = getelementptr inbounds [101 x i8], [101 x i8]* %6, i64 0, i64 %29
  %31 = load i8, i8* %30, align 1
  %32 = sext i8 %31 to i32
  %33 = icmp eq i32 %32, 32
  br i1 %33, label %38, label %34

34:                                               ; preds = %27, %24
  %35 = load i32, i32* %2, align 4
  %36 = load i32, i32* %5, align 4
  %37 = icmp eq i32 %35, %36
  br i1 %37, label %38, label %48

38:                                               ; preds = %34, %27, %17
  %39 = load i32, i32* %2, align 4
  %40 = sext i32 %39 to i64
  %41 = getelementptr inbounds [101 x i8], [101 x i8]* %6, i64 0, i64 %40
  %42 = load i8, i8* %41, align 1
  %43 = load i32, i32* %3, align 4
  %44 = sext i32 %43 to i64
  %45 = getelementptr inbounds [101 x i8], [101 x i8]* %7, i64 0, i64 %44
  store i8 %42, i8* %45, align 1
  %46 = load i32, i32* %3, align 4
  %47 = add nsw i32 %46, 1
  store i32 %47, i32* %3, align 4
  br label %48

48:                                               ; preds = %38, %34
  %49 = load i32, i32* %2, align 4
  %50 = sext i32 %49 to i64
  %51 = getelementptr inbounds [101 x i8], [101 x i8]* %6, i64 0, i64 %50
  %52 = load i8, i8* %51, align 1
  %53 = sext i8 %52 to i32
  %54 = icmp eq i32 %53, 32
  br i1 %54, label %55, label %58

55:                                               ; preds = %48
  %56 = load i32, i32* %4, align 4
  %57 = add nsw i32 %56, 1
  store i32 %57, i32* %4, align 4
  br label %58

58:                                               ; preds = %55, %48
  %59 = load i32, i32* %2, align 4
  %60 = sext i32 %59 to i64
  %61 = getelementptr inbounds [101 x i8], [101 x i8]* %6, i64 0, i64 %60
  %62 = load i8, i8* %61, align 1
  %63 = sext i8 %62 to i32
  %64 = icmp ne i32 %63, 32
  br i1 %64, label %65, label %66

65:                                               ; preds = %58
  store i32 0, i32* %4, align 4
  br label %66

66:                                               ; preds = %65, %58
  br label %67

67:                                               ; preds = %66
  %68 = load i32, i32* %2, align 4
  %69 = add nsw i32 %68, 1
  store i32 %69, i32* %2, align 4
  br label %13

70:                                               ; preds = %13
  %71 = getelementptr inbounds [101 x i8], [101 x i8]* %7, i64 0, i64 0
  %72 = call i32 @puts(i8* %71)
  ret i32 0
}

declare dso_local i32 @gets(...) #1

; Function Attrs: nounwind readonly
declare dso_local i64 @strlen(i8*) #2

declare dso_local i32 @puts(i8*) #1


!llvm.module.flags = !{!0}
!llvm.ident = !{!1}

!0 = !{i32 1, !"wchar_size", i32 4}
!1 = !{!"clang version 10.0.0-4ubuntu1 "}
