; ModuleID = 'source-C-CXX/25/835.c'
source_filename = "source-C-CXX/25/835.c"
target datalayout = "e-m:e-p270:32:32-p271:32:32-p272:64:64-i64:64-f80:128-n8:16:32:64-S128"
target triple = "x86_64-pc-linux-gnu"

; Function Attrs: nounwind sspstrong uwtable
define dso_local i32 @main() local_unnamed_addr #0 {
  %1 = alloca [101 x i8], align 16
  %2 = alloca [101 x i8], align 16
  %3 = getelementptr inbounds [101 x i8], [101 x i8]* %1, i64 0, i64 0
  call void @llvm.lifetime.start.p0i8(i64 101, i8* nonnull %3) #5
  %4 = getelementptr inbounds [101 x i8], [101 x i8]* %2, i64 0, i64 0
  call void @llvm.lifetime.start.p0i8(i64 101, i8* nonnull %4) #5
  %5 = call i32 (i8*, ...) bitcast (i32 (...)* @gets to i32 (i8*, ...)*)(i8* nonnull %3) #5
  %6 = call i64 @strlen(i8* noundef nonnull %3) #6
  %7 = trunc i64 %6 to i32
  %8 = icmp slt i32 %7, 0
  br i1 %8, label %35, label %9

9:                                                ; preds = %0
  %10 = and i64 %6, 4294967295
  %11 = add i64 %6, 1
  %12 = and i64 %11, 4294967295
  br label %13

13:                                               ; preds = %9, %28
  %14 = phi i64 [ 0, %9 ], [ %33, %28 ]
  %15 = phi i32 [ 0, %9 ], [ %32, %28 ]
  %16 = phi i32 [ 0, %9 ], [ %29, %28 ]
  %17 = getelementptr inbounds [101 x i8], [101 x i8]* %1, i64 0, i64 %14
  %18 = load i8, i8* %17, align 1, !tbaa !5
  %19 = icmp eq i8 %18, 32
  br i1 %19, label %20, label %24

20:                                               ; preds = %13
  %21 = icmp eq i32 %15, 0
  %22 = icmp eq i64 %14, %10
  %23 = select i1 %21, i1 true, i1 %22
  br i1 %23, label %24, label %28

24:                                               ; preds = %20, %13
  %25 = sext i32 %16 to i64
  %26 = getelementptr inbounds [101 x i8], [101 x i8]* %2, i64 0, i64 %25
  store i8 %18, i8* %26, align 1, !tbaa !5
  %27 = add nsw i32 %16, 1
  br label %28

28:                                               ; preds = %20, %24
  %29 = phi i32 [ %27, %24 ], [ %16, %20 ]
  %30 = zext i1 %19 to i32
  %31 = add nsw i32 %15, %30
  %32 = select i1 %19, i32 %31, i32 0
  %33 = add nuw nsw i64 %14, 1
  %34 = icmp eq i64 %33, %12
  br i1 %34, label %35, label %13, !llvm.loop !8

35:                                               ; preds = %28, %0
  %36 = call i32 @puts(i8* nonnull %4)
  call void @llvm.lifetime.end.p0i8(i64 101, i8* nonnull %4) #5
  call void @llvm.lifetime.end.p0i8(i64 101, i8* nonnull %3) #5
  ret i32 0
}

; Function Attrs: argmemonly mustprogress nofree nosync nounwind willreturn
declare void @llvm.lifetime.start.p0i8(i64 immarg, i8* nocapture) #1

declare i32 @gets(...) local_unnamed_addr #2

; Function Attrs: argmemonly mustprogress nofree nounwind readonly willreturn
declare i64 @strlen(i8* nocapture) local_unnamed_addr #3

; Function Attrs: nofree nounwind
declare noundef i32 @puts(i8* nocapture noundef readonly) local_unnamed_addr #4

; Function Attrs: argmemonly mustprogress nofree nosync nounwind willreturn
declare void @llvm.lifetime.end.p0i8(i64 immarg, i8* nocapture) #1


!llvm.module.flags = !{!0, !1, !2, !3}
!llvm.ident = !{!4}

!0 = !{i32 1, !"wchar_size", i32 4}
!1 = !{i32 7, !"PIC Level", i32 2}
!2 = !{i32 7, !"PIE Level", i32 2}
!3 = !{i32 7, !"uwtable", i32 1}
!4 = !{!"clang version 13.0.0"}
!5 = !{!6, !6, i64 0}
!6 = !{!"omnipotent char", !7, i64 0}
!7 = !{!"Simple C/C++ TBAA"}
!8 = distinct !{!8, !9}
!9 = !{!"llvm.loop.mustprogress"}
